(dp1
S'Southampton'
p2
(iparityClasses
team
p3
(dp4
S'points'
p5
I0
sS'conquests'
p6
(lp7
sbsS'Liverpool'
p8
(iparityClasses
team
p9
(dp10
g5
I0
sg6
(lp11
sbsS'Norwich'
p12
(iparityClasses
team
p13
(dp14
g5
I0
sg6
(lp15
sbsS'West Ham'
p16
(iparityClasses
team
p17
(dp18
g5
I0
sg6
(lp19
sbsS'Man City'
p20
(iparityClasses
team
p21
(dp22
g5
I0
sg6
(lp23
sbsS'Leicester'
p24
(iparityClasses
team
p25
(dp26
g5
I0
sg6
(lp27
sbsS'Aston Villa'
p28
(iparityClasses
team
p29
(dp30
g5
I0
sg6
(lp31
sbsS'Arsenal'
p32
(iparityClasses
team
p33
(dp34
g5
I0
sg6
(lp35
sbsS'Man Utd'
p36
(iparityClasses
team
p37
(dp38
g5
I0
sg6
(lp39
sbsS'Swansea'
p40
(iparityClasses
team
p41
(dp42
g5
I0
sg6
(lp43
sbsS'Crystal Palace'
p44
(iparityClasses
team
p45
(dp46
g5
I0
sg6
(lp47
sbsS'Sunderland'
p48
(iparityClasses
team
p49
(dp50
g5
I0
sg6
(lp51
sbsS'Watford'
p52
(iparityClasses
team
p53
(dp54
g5
I0
sg6
(lp55
sbsS'Newcastle'
p56
(iparityClasses
team
p57
(dp58
g5
I0
sg6
(lp59
sbsS'Everton'
p60
(iparityClasses
team
p61
(dp62
g5
I0
sg6
(lp63
sbsS'Stoke'
p64
(iparityClasses
team
p65
(dp66
g5
I0
sg6
(lp67
sbsS'West Brom'
p68
(iparityClasses
team
p69
(dp70
g5
I0
sg6
(lp71
sbsS'Bournemouth'
p72
(iparityClasses
team
p73
(dp74
g5
I0
sg6
(lp75
sbsS'Chelsea'
p76
(iparityClasses
team
p77
(dp78
g5
I0
sg6
(lp79
sbsS'Spurs'
p80
(iparityClasses
team
p81
(dp82
g5
I0
sg6
(lp83
sbs.