(dp1
S'a'
(iparityClasses
team
p2
(dp3
S'points'
p4
I3
sS'conquests'
p5
(lp6
S'b'
asbsS'c'
(iparityClasses
team
p7
(dp8
g4
I3
sg5
(lp9
S'a'
asbsS'b'
(iparityClasses
team
p10
(dp11
g4
I3
sg5
(lp12
S'c'
asbs.