(dp1
S'Southampton'
p2
(iparityClasses
team
p3
(dp4
S'points'
p5
I15
sS'conquests'
p6
(lp7
S'Norwich'
p8
aS'Swansea'
p9
aS'Chelsea'
p10
aS'Bournemouth'
p11
aS'Sunderland'
p12
asbsS'Liverpool'
p13
(iparityClasses
team
p14
(dp15
g5
I15
sg6
(lp16
S'Man City'
p17
aS'Chelsea'
p18
aS'Aston Villa'
p19
aS'Bournemouth'
p20
aS'Stoke'
p21
asbsS'Norwich'
p22
(iparityClasses
team
p23
(dp24
g5
I9
sg6
(lp25
S'Swansea'
p26
aS'Bournemouth'
p27
aS'Sunderland'
p28
asbsS'West Ham'
p29
(iparityClasses
team
p30
(dp31
g5
I18
sg6
(lp32
S'Chelsea'
p33
aS'Crystal Palace'
p34
aS'Man City'
p35
aS'Newcastle'
p36
aS'Liverpool'
p37
aS'Arsenal'
p38
asbsS'Man City'
p39
(iparityClasses
team
p40
(dp41
g5
I24
sg6
(lp42
S'Norwich'
p43
aS'Bournemouth'
p44
aS'Newcastle'
p45
aS'Crystal Palace'
p46
aS'Watford'
p47
aS'Everton'
p48
aS'Chelsea'
p49
aS'West Brom'
p50
asbsS'Leicester'
p51
(iparityClasses
team
p52
(dp53
g5
I24
sg6
(lp54
S'Newcastle'
p55
aS'Watford'
p56
aS'West Brom'
p57
aS'Crystal Palace'
p58
aS'Norwich'
p59
aS'Aston Villa'
p60
aS'West Ham'
p61
aS'Sunderland'
p62
asbsS'Aston Villa'
p63
(iparityClasses
team
p64
(dp65
g5
I3
sg6
(lp66
S'Bournemouth'
p67
asbsS'Arsenal'
p68
(iparityClasses
team
p69
(dp70
g5
I24
sg6
(lp71
S'Swansea'
p72
aS'Everton'
p73
aS'Watford'
p74
aS'Man Utd'
p75
aS'Leicester'
p76
aS'Stoke'
p77
aS'Newcastle'
p78
aS'Crystal Palace'
p79
asbsS'Man Utd'
p80
(iparityClasses
team
p81
(dp82
g5
I24
sg6
(lp83
S'Watford'
p84
aS'Everton'
p85
aS'Sunderland'
p86
aS'West Brom'
p87
aS'Southampton'
p88
aS'Liverpool'
p89
aS'Aston Villa'
p90
aS'Spurs'
p91
asbsS'Bournemouth'
p92
(iparityClasses
team
p93
(dp94
g5
I6
sg6
(lp95
S'Sunderland'
p96
aS'West Ham'
p97
asbsS'Crystal Palace'
p98
(iparityClasses
team
p99
(dp100
g5
I18
sg6
(lp101
S'Liverpool'
p102
aS'West Brom'
p103
aS'Watford'
p104
aS'Chelsea'
p105
aS'Aston Villa'
p106
aS'Watford'
p107
asbsS'Sunderland'
p108
(iparityClasses
team
p109
(dp110
g5
I6
sg6
(lp111
S'Crystal Palace'
p112
aS'Newcastle'
p113
asbsS'Watford'
p114
(iparityClasses
team
p115
(dp116
g5
I12
sg6
(lp117
S'West Ham'
p118
aS'Stoke'
p119
aS'Newcastle'
p120
aS'Swansea'
p121
asbsS'Newcastle'
p122
(iparityClasses
team
p123
(dp124
g5
I6
sg6
(lp125
S'Norwich'
p126
aS'Bournemouth'
p127
asbsS'Everton'
p128
(iparityClasses
team
p129
(dp130
g5
I15
sg6
(lp131
S'Aston Villa'
p132
aS'Sunderland'
p133
aS'West Brom'
p134
aS'Chelsea'
p135
aS'Southampton'
p136
asbsS'Stoke'
p137
(iparityClasses
team
p138
(dp139
g5
I15
sg6
(lp140
S'Southampton'
p141
aS'Chelsea'
p142
aS'Swansea'
p143
aS'Bournemouth'
p144
aS'Aston Villa'
p145
asbsS'West Brom'
p146
(iparityClasses
team
p147
(dp148
g5
I15
sg6
(lp149
S'Arsenal'
p150
aS'Norwich'
p151
aS'Sunderland'
p152
aS'Aston Villa'
p153
aS'Stoke'
p154
asbsS'Swansea'
p155
(iparityClasses
team
p156
(dp157
g5
I9
sg6
(lp158
S'Newcastle'
p159
aS'Aston Villa'
p160
aS'Man Utd'
p161
asbsS'Chelsea'
p162
(iparityClasses
team
p163
(dp164
g5
I12
sg6
(lp165
S'Norwich'
p166
aS'Aston Villa'
p167
aS'Arsenal'
p168
aS'West Brom'
p169
asbsS'Spurs'
p170
(iparityClasses
team
p171
(dp172
g5
I18
sg6
(lp173
S'West Ham'
p174
aS'Aston Villa'
p175
aS'Bournemouth'
p176
aS'Man City'
p177
aS'Sunderland'
p178
aS'Crystal Palace'
p179
asbs.